; Function Attrs: mustprogress nofree nounwind willreturn memory(readwrite, inaccessiblemem: write) uwtable
define noundef i32 @_ZNK9Scheduler13PredictedTimeER4deali(ptr nocapture noundef nonnull readonly align 8 dereferenceable(43416) %0, ptr nocapture noundef nonnull readonly align 4 dereferenceable(96) %1, i32 noundef %2) local_unnamed_addr #15 align 2 {
  %4 = load i32, ptr %1, align 4
  %5 = icmp eq i32 %4, 4
  %6 = getelementptr inbounds nuw i8, ptr %1, i64 32
  %7 = load i32, ptr %6, align 4
  %8 = getelementptr inbounds i8, ptr %1, i64 64
  %9 = load i32, ptr %8, align 4
  %10 = or i32 %9, %7
  %11 = lshr i32 %10, 2
  %12 = getelementptr inbounds i8, ptr %1, i64 36
  %13 = load i32, ptr %12, align 4
  %14 = getelementptr inbounds i8, ptr %1, i64 68
  %15 = load i32, ptr %14, align 4
  %16 = or i32 %15, %13
  %17 = lshr i32 %16, 2
  %18 = getelementptr inbounds i8, ptr %1, i64 40
  %19 = load i32, ptr %18, align 4
  %20 = getelementptr inbounds i8, ptr %1, i64 72
  %21 = load i32, ptr %20, align 4
  %22 = or i32 %21, %19
  %23 = lshr i32 %22, 2
  %24 = getelementptr inbounds i8, ptr %1, i64 44
  %25 = load i32, ptr %24, align 4
  %26 = getelementptr inbounds i8, ptr %1, i64 76
  %27 = load i32, ptr %26, align 4
  %28 = or i32 %27, %25
  %29 = lshr i32 %28, 2
  %30 = getelementptr inbounds nuw i8, ptr %0, i64 43296
  %31 = zext nneg i32 %11 to i64
  %32 = load ptr, ptr %30, align 8
  %33 = getelementptr inbounds i32, ptr %32, i64 %31
  %34 = load i32, ptr %33, align 4
  %35 = zext nneg i32 %17 to i64
  %36 = getelementptr inbounds i32, ptr %32, i64 %35
  %37 = load i32, ptr %36, align 4
  %38 = zext nneg i32 %23 to i64
  %39 = getelementptr inbounds i32, ptr %32, i64 %38
  %40 = load i32, ptr %39, align 4
  %41 = zext nneg i32 %29 to i64
  %42 = getelementptr inbounds i32, ptr %32, i64 %41
  %43 = load i32, ptr %42, align 4
  %44 = icmp sgt i32 %34, 13
  %45 = add nsw i32 %34, -14
  %46 = sub nsw i32 14, %34
  %47 = select i1 %44, i32 %45, i32 %46
  %48 = icmp sgt i32 %37, 13
  %49 = add nsw i32 %37, -14
  %50 = sub nsw i32 14, %37
  %51 = select i1 %48, i32 %49, i32 %50
  %52 = add nsw i32 %51, %47
  %53 = icmp sgt i32 %40, 13
  %54 = add nsw i32 %40, -14
  %55 = sub nsw i32 14, %40
  %56 = select i1 %53, i32 %54, i32 %55
  %57 = add nsw i32 %52, %56
  %58 = icmp sgt i32 %43, 13
  %59 = add nsw i32 %43, -14
  %60 = sub nsw i32 14, %43
  %61 = select i1 %58, i32 %59, i32 %60
  %62 = add nsw i32 %57, %61
  %spec.store.select.i = tail call noundef range(i32 -2147483648, 50) i32 @llvm.smin.i32(i32 %62, i32 49)
  br i1 %5, label %63, label %72

63:                                               ; preds = %3
  %64 = icmp sgt i32 %62, 24
  %.neg24 = mul nsw i32 %spec.store.select.i, -2500
  %65 = add i32 %.neg24, 125000
  %.neg23 = mul i32 %spec.store.select.i, -5500
  %66 = add i32 %.neg23, 200000
  %.0 = select i1 %64, i32 %65, i32 %66
  %67 = icmp sgt i32 %2, 0
  %68 = sitofp i32 %.0 to double
  %69 = fmul double %68, 1.250000e+00
  %70 = fptosi double %69 to i32
  %.1 = select i1 %67, i32 %70, i32 %.0
  %71 = icmp sgt i32 %2, 1
  br i1 %71, label %.sink.split, label %87

72:                                               ; preds = %3
  %.neg = mul i32 %spec.store.select.i, -2500
  %73 = add i32 %.neg, 125000
  %74 = icmp sgt i32 %2, 0
  %75 = sitofp i32 %73 to double
  %76 = fmul double %75, 1.200000e+00
  %77 = fptosi double %76 to i32
  %.3 = select i1 %74, i32 %77, i32 %73
  %78 = icmp sgt i32 %2, 1
  br i1 %78, label %.sink.split, label %87

.sink.split:                                      ; preds = %72, %63
  %.sink = phi i32 [ %70, %63 ], [ %77, %72 ]
  %.sink28 = phi double [ 6.000000e+00, %63 ], [ 5.500000e+00, %72 ]
  %79 = sitofp i32 %.sink to double
  %80 = sub nsw i32 1, %2
  %81 = sitofp i32 %80 to double
  %82 = fdiv double %81, %.sink28
  %83 = tail call double @exp(double noundef %82) #23
  %84 = tail call double @llvm.fmuladd.f64(double %83, double -1.850000e-01, double 1.185000e+00)
  %85 = fmul double %84, %79
  %86 = fptosi double %85 to i32
  br label %87

87:                                               ; preds = %.sink.split, %72, %63
  %.2 = phi i32 [ %.1, %63 ], [ %.3, %72 ], [ %86, %.sink.split ]
  ret i32 %.2
}